target datalayout = "e-m:e-p270:32:32-p271:32:32-p272:64:64-i64:64-i128:128-f80:128-n8:16:32:64-S128"
target triple = "x86_64-pc-linux-gnu"

@hf_onos_subtype = internal global i32 0, align 4
@hf_onos_chassis = internal global i32 0, align 4
@hf_onos_port = internal global i32 0, align 4
@hf_onos_ttl = internal global i32 0, align 4
@hf_unknown_subtype_content = internal global i32 0, align 4

; Function Attrs: null_pointer_is_valid sspstrong uwtable
define internal void @dissect_onos_tlv(ptr noundef %0, ptr noundef %1, ptr noundef %2) #0 {
  %4 = alloca ptr, align 8
  %5 = alloca ptr, align 8
  %6 = alloca ptr, align 8
  %7 = alloca i16, align 2
  %8 = alloca i32, align 4
  %9 = alloca i32, align 4
  store ptr %0, ptr %4, align 8
  store ptr %1, ptr %5, align 8
  store ptr %2, ptr %6, align 8
  call void @llvm.lifetime.start.p0(i64 2, ptr %7) #9
  call void @llvm.lifetime.start.p0(i64 4, ptr %8) #9
  call void @llvm.lifetime.start.p0(i64 4, ptr %9) #9
  store i32 0, ptr %9, align 4
  %10 = load ptr, ptr %6, align 8
  %11 = load i32, ptr @hf_onos_subtype, align 4
  %12 = load ptr, ptr %4, align 8
  %13 = load i32, ptr %9, align 4
  %14 = call ptr @proto_tree_add_item_ret_uint(ptr noundef %10, i32 noundef %11, ptr noundef %12, i32 noundef %13, i32 noundef 1, i32 noundef 0, ptr noundef %8)
  %15 = load i32, ptr %9, align 4
  %16 = add i32 %15, 1
  store i32 %16, ptr %9, align 4
  %17 = load ptr, ptr %4, align 8
  %18 = load i32, ptr %9, align 4
  %19 = call i32 @tvb_reported_length_remaining(ptr noundef %17, i32 noundef %18)
  %20 = trunc i32 %19 to i16
  store i16 %20, ptr %7, align 2
  %21 = load i32, ptr %8, align 4
  switch i32 %21, label %46 [
    i32 1, label %22
    i32 2, label %30
    i32 3, label %38
  ]

22:                                               ; preds = %3
  %23 = load ptr, ptr %6, align 8
  %24 = load i32, ptr @hf_onos_chassis, align 4
  %25 = load ptr, ptr %4, align 8
  %26 = load i32, ptr %9, align 4
  %27 = load i16, ptr %7, align 2
  %28 = zext i16 %27 to i32
  %29 = call ptr @proto_tree_add_item(ptr noundef %23, i32 noundef %24, ptr noundef %25, i32 noundef %26, i32 noundef %28, i32 noundef 0)
  br label %52

30:                                               ; preds = %3
  %31 = load ptr, ptr %6, align 8
  %32 = load i32, ptr @hf_onos_port, align 4
  %33 = load ptr, ptr %4, align 8
  %34 = load i32, ptr %9, align 4
  %35 = load i16, ptr %7, align 2
  %36 = zext i16 %35 to i32
  %37 = call ptr @proto_tree_add_item(ptr noundef %31, i32 noundef %32, ptr noundef %33, i32 noundef %34, i32 noundef %36, i32 noundef 0)
  br label %52

38:                                               ; preds = %3
  %39 = load ptr, ptr %6, align 8
  %40 = load i32, ptr @hf_onos_ttl, align 4
  %41 = load ptr, ptr %4, align 8
  %42 = load i32, ptr %9, align 4
  %43 = load i16, ptr %7, align 2
  %44 = zext i16 %43 to i32
  %45 = call ptr @proto_tree_add_item(ptr noundef %39, i32 noundef %40, ptr noundef %41, i32 noundef %42, i32 noundef %44, i32 noundef 0)
  br label %52

46:                                               ; preds = %3
  %47 = load ptr, ptr %6, align 8
  %48 = load i32, ptr @hf_unknown_subtype_content, align 4
  %49 = load ptr, ptr %4, align 8
  %50 = load i32, ptr %9, align 4
  %51 = call ptr @proto_tree_add_item(ptr noundef %47, i32 noundef %48, ptr noundef %49, i32 noundef %50, i32 noundef -1, i32 noundef 0)
  br label %52

52:                                               ; preds = %46, %38, %30, %22
  call void @llvm.lifetime.end.p0(i64 4, ptr %9) #9
  call void @llvm.lifetime.end.p0(i64 4, ptr %8) #9
  call void @llvm.lifetime.end.p0(i64 2, ptr %7) #9
  ret void
}