; Function Attrs: null_pointer_is_valid sspstrong uwtable
define internal fastcc void @dissect_onos_tlv(ptr noundef %0, ptr noundef %1) unnamed_addr #0 {
  %3 = alloca i32, align 4
  call void @llvm.lifetime.start.p0(i64 4, ptr nonnull %3) #10
  %4 = load i32, ptr @hf_onos_subtype, align 4
  %5 = call ptr @proto_tree_add_item_ret_uint(ptr noundef %1, i32 noundef %4, ptr noundef %0, i32 noundef 0, i32 noundef 1, i32 noundef 0, ptr noundef nonnull %3)
  %6 = call i32 @tvb_reported_length_remaining(ptr noundef %0, i32 noundef 1)
  %7 = load i32, ptr %3, align 4
  switch i32 %7, label %20 [
    i32 1, label %8
    i32 2, label %12
    i32 3, label %16
  ]

8:                                                ; preds = %2
  %9 = load i32, ptr @hf_onos_chassis, align 4
  %10 = and i32 %6, 65535
  %11 = call ptr @proto_tree_add_item(ptr noundef %1, i32 noundef %9, ptr noundef %0, i32 noundef 1, i32 noundef %10, i32 noundef 0)
  br label %23

12:                                               ; preds = %2
  %13 = load i32, ptr @hf_onos_port, align 4
  %14 = and i32 %6, 65535
  %15 = call ptr @proto_tree_add_item(ptr noundef %1, i32 noundef %13, ptr noundef %0, i32 noundef 1, i32 noundef %14, i32 noundef 0)
  br label %23

16:                                               ; preds = %2
  %17 = load i32, ptr @hf_onos_ttl, align 4
  %18 = and i32 %6, 65535
  %19 = call ptr @proto_tree_add_item(ptr noundef %1, i32 noundef %17, ptr noundef %0, i32 noundef 1, i32 noundef %18, i32 noundef 0)
  br label %23

20:                                               ; preds = %2
  %21 = load i32, ptr @hf_unknown_subtype_content, align 4
  %22 = call ptr @proto_tree_add_item(ptr noundef %1, i32 noundef %21, ptr noundef %0, i32 noundef 1, i32 noundef -1, i32 noundef 0)
  br label %23

23:                                               ; preds = %20, %16, %12, %8
  call void @llvm.lifetime.end.p0(i64 4, ptr nonnull %3) #10
  ret void
}